target datalayout = "e-m:e-p270:32:32-p271:32:32-p272:64:64-i64:64-i128:128-f80:128-n8:16:32:64-S128"
target triple = "x86_64-pc-linux-gnu"

%struct.CONF_VALUE = type { ptr, ptr, ptr }
%struct.ISSUING_DIST_POINT_st = type { ptr, i32, i32, ptr, i32, i32 }

@ISSUING_DIST_POINT_it.local_it = internal constant { i8, [7 x i8], i64, ptr, i64, ptr, i64, ptr } { i8 1, [7 x i8] zeroinitializer, i64 16, ptr @ISSUING_DIST_POINT_seq_tt, i64 6, ptr null, i64 32, ptr @.str.3 }, align 8
@.str.5 = private unnamed_addr constant [33 x i8] c"../openssl/crypto/x509/v3_crld.c\00", align 1
@.str.34 = private unnamed_addr constant [9 x i8] c"onlyuser\00", align 1
@.str.35 = private unnamed_addr constant [7 x i8] c"onlyCA\00", align 1
@.str.36 = private unnamed_addr constant [16 x i8] c"onlysomereasons\00", align 1
@.str.37 = private unnamed_addr constant [12 x i8] c"indirectCRL\00", align 1
@__func__.v2i_idp = private unnamed_addr constant [8 x i8] c"v2i_idp\00", align 1
@.str.39 = private unnamed_addr constant [7 x i8] c"onlyAA\00", align 1
@.str.40 = private unnamed_addr constant [6 x i8] c"name=\00", align 1
@.str.41 = private unnamed_addr constant [9 x i8] c", value=\00", align 1

; Function Attrs: nounwind uwtable
define ptr @ISSUING_DIST_POINT_it() #0 {
  ret ptr @ISSUING_DIST_POINT_it.local_it
}

; Function Attrs: nounwind uwtable
define void @ISSUING_DIST_POINT_free(ptr noundef %0) #0 {
  %2 = alloca ptr, align 8
  store ptr %0, ptr %2, align 8, !tbaa !55
  %3 = load ptr, ptr %2, align 8, !tbaa !55
  %4 = call ptr @ISSUING_DIST_POINT_it()
  call void @ASN1_item_free(ptr noundef %3, ptr noundef %4)
  ret void
}

; Function Attrs: inlinehint nounwind uwtable
define internal ptr @ossl_check_const_CONF_VALUE_sk_type(ptr noundef %0) #3 {
  %2 = alloca ptr, align 8
  store ptr %0, ptr %2, align 8, !tbaa !10
  %3 = load ptr, ptr %2, align 8, !tbaa !10
  ret ptr %3
}

; Function Attrs: nounwind uwtable
define ptr @ISSUING_DIST_POINT_new() #0 {
  %1 = call ptr @ISSUING_DIST_POINT_it()
  %2 = call ptr @ASN1_item_new(ptr noundef %1)
  ret ptr %2
}

; Function Attrs: nounwind uwtable
define internal ptr @v2i_idp(ptr noundef %0, ptr noundef %1, ptr noundef %2) #0 {
  %4 = alloca ptr, align 8
  %5 = alloca ptr, align 8
  %6 = alloca ptr, align 8
  %7 = alloca ptr, align 8
  %8 = alloca ptr, align 8
  %9 = alloca ptr, align 8
  %10 = alloca ptr, align 8
  %11 = alloca ptr, align 8
  %12 = alloca i32, align 4
  %13 = alloca i32, align 4
  %14 = alloca i32, align 4
  store ptr %0, ptr %5, align 8, !tbaa !3
  store ptr %1, ptr %6, align 8, !tbaa !8
  store ptr %2, ptr %7, align 8, !tbaa !10
  call void @llvm.lifetime.start.p0(i64 8, ptr %8) #5
  store ptr null, ptr %8, align 8, !tbaa !55
  call void @llvm.lifetime.start.p0(i64 8, ptr %9) #5
  call void @llvm.lifetime.start.p0(i64 8, ptr %10) #5
  call void @llvm.lifetime.start.p0(i64 8, ptr %11) #5
  call void @llvm.lifetime.start.p0(i64 4, ptr %12) #5
  call void @llvm.lifetime.start.p0(i64 4, ptr %13) #5
  %15 = call ptr @ISSUING_DIST_POINT_new()
  store ptr %15, ptr %8, align 8, !tbaa !55
  %16 = load ptr, ptr %8, align 8, !tbaa !55
  %17 = icmp eq ptr %16, null
  br i1 %17, label %18, label %19

18:                                               ; preds = %3
  call void @ERR_new()
  call void @ERR_set_debug(ptr noundef @.str.5, i32 noundef 382, ptr noundef @__func__.v2i_idp)
  call void (i32, i32, ptr, ...) @ERR_set_error(i32 noundef 34, i32 noundef 524301, ptr noundef null)
  br label %126

19:                                               ; preds = %3
  store i32 0, ptr %12, align 4, !tbaa !16
  br label %20

20:                                               ; preds = %121, %19
  %21 = load i32, ptr %12, align 4, !tbaa !16
  %22 = load ptr, ptr %7, align 8, !tbaa !10
  %23 = call ptr @ossl_check_const_CONF_VALUE_sk_type(ptr noundef %22)
  %24 = call i32 @OPENSSL_sk_num(ptr noundef %23)
  %25 = icmp slt i32 %21, %24
  br i1 %25, label %26, label %124

26:                                               ; preds = %20
  %27 = load ptr, ptr %7, align 8, !tbaa !10
  %28 = call ptr @ossl_check_const_CONF_VALUE_sk_type(ptr noundef %27)
  %29 = load i32, ptr %12, align 4, !tbaa !16
  %30 = call ptr @OPENSSL_sk_value(ptr noundef %28, i32 noundef %29)
  store ptr %30, ptr %9, align 8, !tbaa !20
  %31 = load ptr, ptr %9, align 8, !tbaa !20
  %32 = getelementptr inbounds nuw %struct.CONF_VALUE, ptr %31, i32 0, i32 1
  %33 = load ptr, ptr %32, align 8, !tbaa !24
  store ptr %33, ptr %10, align 8, !tbaa !57
  %34 = load ptr, ptr %9, align 8, !tbaa !20
  %35 = getelementptr inbounds nuw %struct.CONF_VALUE, ptr %34, i32 0, i32 2
  %36 = load ptr, ptr %35, align 8, !tbaa !21
  store ptr %36, ptr %11, align 8, !tbaa !57
  %37 = load ptr, ptr %8, align 8, !tbaa !55
  %38 = getelementptr inbounds nuw %struct.ISSUING_DIST_POINT_st, ptr %37, i32 0, i32 0
  %39 = load ptr, ptr %6, align 8, !tbaa !8
  %40 = load ptr, ptr %9, align 8, !tbaa !20
  %41 = call i32 @set_dist_point_name(ptr noundef %38, ptr noundef %39, ptr noundef %40)
  store i32 %41, ptr %13, align 4, !tbaa !16
  %42 = load i32, ptr %13, align 4, !tbaa !16
  %43 = icmp sgt i32 %42, 0
  br i1 %43, label %44, label %45

44:                                               ; preds = %26
  br label %121

45:                                               ; preds = %26
  %46 = load i32, ptr %13, align 4, !tbaa !16
  %47 = icmp slt i32 %46, 0
  br i1 %47, label %48, label %49

48:                                               ; preds = %45
  br label %126

49:                                               ; preds = %45
  %50 = load ptr, ptr %10, align 8, !tbaa !57
  %51 = call i32 @strcmp(ptr noundef %50, ptr noundef @.str.34) #6
  %52 = icmp eq i32 %51, 0
  br i1 %52, label %53, label %61

53:                                               ; preds = %49
  %54 = load ptr, ptr %9, align 8, !tbaa !20
  %55 = load ptr, ptr %8, align 8, !tbaa !55
  %56 = getelementptr inbounds nuw %struct.ISSUING_DIST_POINT_st, ptr %55, i32 0, i32 1
  %57 = call i32 @X509V3_get_value_bool(ptr noundef %54, ptr noundef %56)
  %58 = icmp ne i32 %57, 0
  br i1 %58, label %60, label %59

59:                                               ; preds = %53
  br label %126

60:                                               ; preds = %53
  br label %120

61:                                               ; preds = %49
  %62 = load ptr, ptr %10, align 8, !tbaa !57
  %63 = call i32 @strcmp(ptr noundef %62, ptr noundef @.str.35) #6
  %64 = icmp eq i32 %63, 0
  br i1 %64, label %65, label %73

65:                                               ; preds = %61
  %66 = load ptr, ptr %9, align 8, !tbaa !20
  %67 = load ptr, ptr %8, align 8, !tbaa !55
  %68 = getelementptr inbounds nuw %struct.ISSUING_DIST_POINT_st, ptr %67, i32 0, i32 2
  %69 = call i32 @X509V3_get_value_bool(ptr noundef %66, ptr noundef %68)
  %70 = icmp ne i32 %69, 0
  br i1 %70, label %72, label %71

71:                                               ; preds = %65
  br label %126

72:                                               ; preds = %65
  br label %119

73:                                               ; preds = %61
  %74 = load ptr, ptr %10, align 8, !tbaa !57
  %75 = call i32 @strcmp(ptr noundef %74, ptr noundef @.str.39) #6
  %76 = icmp eq i32 %75, 0
  br i1 %76, label %77, label %85

77:                                               ; preds = %73
  %78 = load ptr, ptr %9, align 8, !tbaa !20
  %79 = load ptr, ptr %8, align 8, !tbaa !55
  %80 = getelementptr inbounds nuw %struct.ISSUING_DIST_POINT_st, ptr %79, i32 0, i32 5
  %81 = call i32 @X509V3_get_value_bool(ptr noundef %78, ptr noundef %80)
  %82 = icmp ne i32 %81, 0
  br i1 %82, label %84, label %83

83:                                               ; preds = %77
  br label %126

84:                                               ; preds = %77
  br label %118

85:                                               ; preds = %73
  %86 = load ptr, ptr %10, align 8, !tbaa !57
  %87 = call i32 @strcmp(ptr noundef %86, ptr noundef @.str.37) #6
  %88 = icmp eq i32 %87, 0
  br i1 %88, label %89, label %97

89:                                               ; preds = %85
  %90 = load ptr, ptr %9, align 8, !tbaa !20
  %91 = load ptr, ptr %8, align 8, !tbaa !55
  %92 = getelementptr inbounds nuw %struct.ISSUING_DIST_POINT_st, ptr %91, i32 0, i32 4
  %93 = call i32 @X509V3_get_value_bool(ptr noundef %90, ptr noundef %92)
  %94 = icmp ne i32 %93, 0
  br i1 %94, label %96, label %95

95:                                               ; preds = %89
  br label %126

96:                                               ; preds = %89
  br label %117

97:                                               ; preds = %85
  %98 = load ptr, ptr %10, align 8, !tbaa !57
  %99 = call i32 @strcmp(ptr noundef %98, ptr noundef @.str.36) #6
  %100 = icmp eq i32 %99, 0
  br i1 %100, label %101, label %109

101:                                              ; preds = %97
  %102 = load ptr, ptr %8, align 8, !tbaa !55
  %103 = getelementptr inbounds nuw %struct.ISSUING_DIST_POINT_st, ptr %102, i32 0, i32 3
  %104 = load ptr, ptr %11, align 8, !tbaa !57
  %105 = call i32 @set_reasons(ptr noundef %103, ptr noundef %104)
  %106 = icmp ne i32 %105, 0
  br i1 %106, label %108, label %107

107:                                              ; preds = %101
  br label %126

108:                                              ; preds = %101
  br label %116

109:                                              ; preds = %97
  call void @ERR_new()
  call void @ERR_set_debug(ptr noundef @.str.5, i32 noundef 410, ptr noundef @__func__.v2i_idp)
  call void (i32, i32, ptr, ...) @ERR_set_error(i32 noundef 34, i32 noundef 106, ptr noundef null)
  %110 = load ptr, ptr %9, align 8, !tbaa !20
  %111 = getelementptr inbounds nuw %struct.CONF_VALUE, ptr %110, i32 0, i32 1
  %112 = load ptr, ptr %111, align 8, !tbaa !24
  %113 = load ptr, ptr %9, align 8, !tbaa !20
  %114 = getelementptr inbounds nuw %struct.CONF_VALUE, ptr %113, i32 0, i32 2
  %115 = load ptr, ptr %114, align 8, !tbaa !21
  call void (i32, ...) @ERR_add_error_data(i32 noundef 4, ptr noundef @.str.40, ptr noundef %112, ptr noundef @.str.41, ptr noundef %115)
  br label %126

116:                                              ; preds = %108
  br label %117

117:                                              ; preds = %116, %96
  br label %118

118:                                              ; preds = %117, %84
  br label %119

119:                                              ; preds = %118, %72
  br label %120

120:                                              ; preds = %119, %60
  br label %121

121:                                              ; preds = %120, %44
  %122 = load i32, ptr %12, align 4, !tbaa !16
  %123 = add nsw i32 %122, 1
  store i32 %123, ptr %12, align 4, !tbaa !16
  br label %20, !llvm.loop !58

124:                                              ; preds = %20
  %125 = load ptr, ptr %8, align 8, !tbaa !55
  store ptr %125, ptr %4, align 8
  store i32 1, ptr %14, align 4
  br label %128

126:                                              ; preds = %109, %107, %95, %83, %71, %59, %48, %18
  %127 = load ptr, ptr %8, align 8, !tbaa !55
  call void @ISSUING_DIST_POINT_free(ptr noundef %127)
  store ptr null, ptr %4, align 8
  store i32 1, ptr %14, align 4
  br label %128

128:                                              ; preds = %126, %124
  call void @llvm.lifetime.end.p0(i64 4, ptr %13) #5
  call void @llvm.lifetime.end.p0(i64 4, ptr %12) #5
  call void @llvm.lifetime.end.p0(i64 8, ptr %11) #5
  call void @llvm.lifetime.end.p0(i64 8, ptr %10) #5
  call void @llvm.lifetime.end.p0(i64 8, ptr %9) #5
  call void @llvm.lifetime.end.p0(i64 8, ptr %8) #5
  %129 = load ptr, ptr %4, align 8
  ret ptr %129
}