; Function Attrs: nounwind uwtable
define internal ptr @v2i_idp(ptr readnone captures(none) %0, ptr noundef %1, ptr noundef %2) #1 {
  %4 = tail call ptr @ASN1_item_new(ptr noundef nonnull @ISSUING_DIST_POINT_it.local_it) #5
  %5 = icmp eq ptr %4, null
  br i1 %5, label %13, label %.preheader

.preheader:                                       ; preds = %3
  %6 = tail call i32 @OPENSSL_sk_num(ptr noundef %2) #5
  %7 = icmp sgt i32 %6, 0
  br i1 %7, label %.lr.ph, label %.loopexit

.lr.ph:                                           ; preds = %.preheader
  %8 = getelementptr inbounds nuw i8, ptr %4, i64 16
  %9 = getelementptr inbounds nuw i8, ptr %4, i64 24
  %10 = getelementptr inbounds nuw i8, ptr %4, i64 28
  %11 = getelementptr inbounds nuw i8, ptr %4, i64 12
  %12 = getelementptr inbounds nuw i8, ptr %4, i64 8
  br label %14

13:                                               ; preds = %3
  tail call void @ERR_new() #5
  tail call void @ERR_set_debug(ptr noundef nonnull @.str.5, i32 noundef 382, ptr noundef nonnull @__func__.v2i_idp) #5
  tail call void (i32, i32, ptr, ...) @ERR_set_error(i32 noundef 34, i32 noundef 524301, ptr noundef null) #5
  br label %.loopexit39

14:                                               ; preds = %.lr.ph, %54
  %.03244 = phi i32 [ 0, %.lr.ph ], [ %55, %54 ]
  %15 = tail call ptr @OPENSSL_sk_value(ptr noundef %2, i32 noundef %.03244) #5
  %16 = getelementptr inbounds nuw i8, ptr %15, i64 8
  %17 = load ptr, ptr %16, align 8, !tbaa !9
  %18 = getelementptr inbounds nuw i8, ptr %15, i64 16
  %19 = load ptr, ptr %18, align 8, !tbaa !3
  %20 = tail call fastcc i32 @set_dist_point_name(ptr noundef %4, ptr noundef %1, ptr noundef %15)
  %21 = icmp sgt i32 %20, 0
  br i1 %21, label %54, label %22

22:                                               ; preds = %14
  %23 = icmp slt i32 %20, 0
  br i1 %23, label %.loopexit39, label %24

24:                                               ; preds = %22
  %25 = tail call i32 @strcmp(ptr noundef nonnull dereferenceable(1) %17, ptr noundef nonnull dereferenceable(9) @.str.34) #6
  %26 = icmp eq i32 %25, 0
  br i1 %26, label %27, label %29

27:                                               ; preds = %24
  %28 = tail call i32 @X509V3_get_value_bool(ptr noundef nonnull %15, ptr noundef nonnull %12) #5
  %.not38 = icmp eq i32 %28, 0
  br i1 %.not38, label %.loopexit39, label %54

29:                                               ; preds = %24
  %30 = tail call i32 @strcmp(ptr noundef nonnull dereferenceable(1) %17, ptr noundef nonnull dereferenceable(7) @.str.35) #6
  %31 = icmp eq i32 %30, 0
  br i1 %31, label %32, label %34

32:                                               ; preds = %29
  %33 = tail call i32 @X509V3_get_value_bool(ptr noundef nonnull %15, ptr noundef nonnull %11) #5
  %.not37 = icmp eq i32 %33, 0
  br i1 %.not37, label %.loopexit39, label %54

34:                                               ; preds = %29
  %35 = tail call i32 @strcmp(ptr noundef nonnull dereferenceable(1) %17, ptr noundef nonnull dereferenceable(7) @.str.39) #6
  %36 = icmp eq i32 %35, 0
  br i1 %36, label %37, label %39

37:                                               ; preds = %34
  %38 = tail call i32 @X509V3_get_value_bool(ptr noundef nonnull %15, ptr noundef nonnull %10) #5
  %.not36 = icmp eq i32 %38, 0
  br i1 %.not36, label %.loopexit39, label %54

39:                                               ; preds = %34
  %40 = tail call i32 @strcmp(ptr noundef nonnull dereferenceable(1) %17, ptr noundef nonnull dereferenceable(12) @.str.37) #6
  %41 = icmp eq i32 %40, 0
  br i1 %41, label %42, label %44

42:                                               ; preds = %39
  %43 = tail call i32 @X509V3_get_value_bool(ptr noundef nonnull %15, ptr noundef nonnull %9) #5
  %.not35 = icmp eq i32 %43, 0
  br i1 %.not35, label %.loopexit39, label %54

44:                                               ; preds = %39
  %45 = tail call i32 @strcmp(ptr noundef nonnull dereferenceable(1) %17, ptr noundef nonnull dereferenceable(16) @.str.36) #6
  %46 = icmp eq i32 %45, 0
  br i1 %46, label %47, label %49

47:                                               ; preds = %44
  %48 = tail call fastcc i32 @set_reasons(ptr noundef %8, ptr noundef %19)
  %.not = icmp eq i32 %48, 0
  br i1 %.not, label %.loopexit39, label %54

49:                                               ; preds = %44
  %50 = getelementptr inbounds nuw i8, ptr %15, i64 8
  %51 = getelementptr inbounds nuw i8, ptr %15, i64 16
  tail call void @ERR_new() #5
  tail call void @ERR_set_debug(ptr noundef nonnull @.str.5, i32 noundef 410, ptr noundef nonnull @__func__.v2i_idp) #5
  tail call void (i32, i32, ptr, ...) @ERR_set_error(i32 noundef 34, i32 noundef 106, ptr noundef null) #5
  %52 = load ptr, ptr %50, align 8, !tbaa !9
  %53 = load ptr, ptr %51, align 8, !tbaa !3
  tail call void (i32, ...) @ERR_add_error_data(i32 noundef 4, ptr noundef nonnull @.str.40, ptr noundef %52, ptr noundef nonnull @.str.41, ptr noundef %53) #5
  br label %.loopexit39

54:                                               ; preds = %27, %37, %47, %42, %32, %14
  %55 = add nuw nsw i32 %.03244, 1
  %56 = tail call i32 @OPENSSL_sk_num(ptr noundef %2) #5
  %57 = icmp slt i32 %55, %56
  br i1 %57, label %14, label %.loopexit, !llvm.loop !30

.loopexit39:                                      ; preds = %47, %42, %37, %32, %27, %22, %49, %13
  tail call void @ASN1_item_free(ptr noundef %4, ptr noundef nonnull @ISSUING_DIST_POINT_it.local_it) #5
  br label %.loopexit

.loopexit:                                        ; preds = %54, %.preheader, %.loopexit39
  %.0 = phi ptr [ null, %.loopexit39 ], [ %4, %.preheader ], [ %4, %54 ]
  ret ptr %.0
}